; Function Attrs: mustprogress uwtable
define void @_ZN3gmx23ExpandedEnsembleElement12elementSetupEv(ptr nocapture noundef nonnull readonly align 8 dereferenceable(144) %0) unnamed_addr #0 align 2 personality ptr @__gxx_personality_v0 {
  %2 = alloca %"class.std::filesystem::__cxx11::path", align 8
  %3 = getelementptr inbounds i8, ptr %0, i64 136
  %4 = load ptr, ptr %3, align 8
  %5 = getelementptr inbounds i8, ptr %4, i64 432
  %6 = load ptr, ptr %5, align 8
  %7 = load i32, ptr %6, align 8
  %8 = getelementptr inbounds i8, ptr %4, i64 32
  %9 = load i32, ptr %8, align 8
  %10 = srem i32 %7, %9
  %.not = icmp eq i32 %10, 0
  br i1 %.not, label %15, label %11

11:                                               ; preds = %1
  call void @_ZNSt10filesystem7__cxx114pathC2IA150_cS1_EERKT_NS1_6formatE(ptr noundef nonnull align 8 dereferenceable(40) %2, ptr noundef nonnull align 1 dereferenceable(150) @.str, i8 noundef zeroext 2)
  invoke void (i32, ptr, i32, ptr, ...) @_Z9gmx_fataliRKNSt10filesystem7__cxx114pathEiPKcz(i32 noundef 0, ptr noundef nonnull align 8 dereferenceable(40) %2, i32 noundef 93, ptr noundef nonnull @.str.1) #23
          to label %12 unwind label %13

12:                                               ; preds = %11
  unreachable

13:                                               ; preds = %11
  %14 = landingpad { ptr, i32 }
          cleanup
  call void @_ZNSt10filesystem7__cxx114pathD2Ev(ptr noundef nonnull align 8 dereferenceable(40) %2) #25
  resume { ptr, i32 } %14

15:                                               ; preds = %1
  %16 = getelementptr inbounds i8, ptr %0, i64 104
  %17 = load i8, ptr %16, align 8
  %18 = trunc i8 %17 to i1
  %19 = getelementptr inbounds i8, ptr %0, i64 64
  %20 = load ptr, ptr %19, align 8
  tail call void @_Z22init_expanded_ensemblebPK10t_inputrecP12df_history_t(i1 noundef zeroext %18, ptr noundef nonnull %4, ptr noundef %20)
  ret void
}